ccopy_reg
_reconstructor
p0
(cchemlab.core.molecule
Molecule
p1
c__builtin__
object
p2
Ntp3
Rp4
(dp5
S'r_array'
p6
cnumpy.core.multiarray
_reconstruct
p7
(cnumpy
ndarray
p8
(I0
tp9
S'b'
p10
tp11
Rp12
(I1
(I1
I3
tp13
cnumpy
dtype
p14
(S'f8'
p15
I0
I1
tp16
Rp17
(I3
S'<'
p18
NNNI-1
I-1
I0
tp19
bI00
S'\x00\x00\x00\x00\x00\x00\x00\x00\x00\x00\x00\x00\x00\x00\x00\x00\x00\x00\x00\x00\x00\x00\x00\x00'
p20
tp21
bsS'atom_export_array'
p22
g7
(g8
(I0
tp23
g10
tp24
Rp25
(I1
(I1
tp26
g14
(S'O8'
p27
I0
I1
tp28
Rp29
(I3
S'|'
p30
NNNI-1
I-1
I63
tp31
bI00
(lp32
(dp33
S'grotype'
p34
S'NA'
p35
satp36
bsS'm_array'
p37
g7
(g8
(I0
tp38
g10
tp39
Rp40
(I1
(I1
tp41
g17
I00
S'u\x93\x18\x04V\x0e\xcd?'
p42
tp43
bsS'n_atoms'
p44
I1
sS'export'
p45
(dp46
S'groname'
p47
S'NA+'
p48
ssS'type_array'
p49
g7
(g8
(I0
tp50
g10
tp51
Rp52
(I1
(I1
tp53
g29
I00
(lp54
S'Na'
p55
atp56
bsS'bonds'
p57
g7
(g8
(I0
tp58
g10
tp59
Rp60
(I1
(I0
tp61
g29
I00
(lp62
tp63
bsb.